Certificate:
    Data:
        Version: 3 (0x2)
        Serial Number:
            47:7c:b6:f6:9d:a5:66:1d:62:45:d6:46:b7:bd:4b:53
        Signature Algorithm: sha256WithRSAEncryption
        Issuer: CN=robohub
        Validity
            Not Before: Nov  2 20:50:09 2022 GMT
            Not After : Oct 17 20:50:09 2025 GMT
        Subject: CN=tb_client
        Subject Public Key Info:
            Public Key Algorithm: rsaEncryption
                RSA Public-Key: (2048 bit)
                Modulus:
                    00:a5:fa:7a:55:cb:bf:d8:79:05:6d:18:2b:c0:ac:
                    91:36:40:db:8e:14:08:51:8b:b3:72:0a:1b:41:05:
                    af:fa:eb:c8:bc:1f:19:69:ea:3a:a1:ab:91:a0:e4:
                    5b:21:b7:9f:d0:62:6b:67:e1:ab:17:d3:67:67:29:
                    17:3a:c2:21:25:51:f0:c2:21:d0:47:d8:ff:41:f5:
                    c9:52:09:98:7a:a4:f1:3a:f1:e7:35:0f:61:4a:20:
                    53:d9:1f:0e:47:23:ec:56:01:b9:94:4f:f5:75:c3:
                    9f:16:66:bd:fb:27:d8:75:2e:1f:52:c9:c4:6b:4b:
                    4a:df:e1:71:d9:82:93:7f:5e:e7:13:d6:9f:c1:1f:
                    13:5f:3e:6d:4b:57:db:fc:92:c7:79:15:04:c2:b5:
                    05:58:31:fd:f8:5f:fe:3e:ee:82:88:1d:aa:5f:2e:
                    80:ae:bb:61:e7:d4:89:ad:8c:0c:46:a8:5d:7f:45:
                    1e:34:07:cc:9e:8c:61:0f:77:6c:25:e5:13:c4:76:
                    40:1e:ff:9b:96:55:3d:f5:10:fe:80:8f:a2:1c:9b:
                    02:02:9b:5f:56:74:74:e1:99:9b:77:58:b5:34:e5:
                    a6:79:5a:2a:35:b6:e6:f4:cd:f6:0b:af:4e:91:02:
                    be:07:c4:58:61:81:f8:8c:0d:79:d2:f1:4b:d2:1d:
                    ec:57
                Exponent: 65537 (0x10001)
        X509v3 extensions:
            X509v3 Basic Constraints: 
                CA:FALSE
            X509v3 Subject Key Identifier: 
                32:C7:2C:9B:F1:C2:91:80:CE:86:D6:48:6D:30:C7:2D:F5:50:FC:08
            X509v3 Authority Key Identifier: 
                keyid:E4:27:0E:1D:F2:D9:C6:A9:73:05:98:6A:29:D6:1E:2F:4E:56:21:A3
                DirName:/CN=robohub
                serial:34:F5:69:E9:35:AA:08:03:F9:36:B5:0E:E0:F1:2C:D8:C5:F3:69:EF

            X509v3 Extended Key Usage: 
                TLS Web Client Authentication
            X509v3 Key Usage: 
                Digital Signature
    Signature Algorithm: sha256WithRSAEncryption
         41:b5:1b:c5:7d:9f:84:98:a2:05:f1:ea:fb:42:15:50:b3:21:
         29:ff:01:58:ec:10:04:6e:dd:2f:29:0d:32:f3:2a:6f:f8:3e:
         70:93:0b:59:4b:03:de:8d:c1:d9:b5:92:99:c2:9c:fd:31:19:
         d5:5f:54:2b:95:4f:a2:12:ed:5e:e1:89:24:90:bd:d1:2c:9e:
         30:92:de:33:d0:73:24:50:a0:57:f7:df:4e:21:e4:d4:b6:bc:
         49:a6:58:4c:3d:b5:17:44:a8:f2:8c:33:a0:d4:cc:72:c8:36:
         b4:e0:ef:0b:46:3c:73:a6:eb:c6:06:74:05:7d:3e:b0:de:07:
         8a:73:ef:eb:44:33:65:ed:65:7c:1e:4f:38:e6:ba:ff:a5:5d:
         f4:0b:c2:cd:a6:92:35:47:10:db:20:b8:ee:76:79:4d:95:ee:
         fc:c1:5e:81:1b:fc:26:23:bb:08:74:bf:23:b8:14:32:c8:5c:
         c2:7b:92:6d:16:af:00:bc:c0:8e:76:a4:1c:f7:e5:62:96:45:
         0d:46:5b:ba:f4:cd:40:e8:06:f7:10:91:f7:7e:9c:a4:5f:c5:
         ed:d9:a7:32:17:fc:3d:dc:3a:01:14:1d:4f:e2:8e:f0:5a:af:
         96:f1:64:28:1f:7d:bf:52:f8:26:8e:d2:8e:1a:60:ea:80:d2:
         ef:51:0a:b3
-----BEGIN CERTIFICATE-----
MIIDTzCCAjegAwIBAgIQR3y29p2lZh1iRdZGt71LUzANBgkqhkiG9w0BAQsFADAS
MRAwDgYDVQQDDAdyb2JvaHViMB4XDTIyMTEwMjIwNTAwOVoXDTI1MTAxNzIwNTAw
OVowFDESMBAGA1UEAwwJdGJfY2xpZW50MIIBIjANBgkqhkiG9w0BAQEFAAOCAQ8A
MIIBCgKCAQEApfp6Vcu/2HkFbRgrwKyRNkDbjhQIUYuzcgobQQWv+uvIvB8Zaeo6
oauRoORbIbef0GJrZ+GrF9NnZykXOsIhJVHwwiHQR9j/QfXJUgmYeqTxOvHnNQ9h
SiBT2R8ORyPsVgG5lE/1dcOfFma9+yfYdS4fUsnEa0tK3+Fx2YKTf17nE9afwR8T
Xz5tS1fb/JLHeRUEwrUFWDH9+F/+Pu6CiB2qXy6Arrth59SJrYwMRqhdf0UeNAfM
noxhD3dsJeUTxHZAHv+bllU99RD+gI+iHJsCAptfVnR04Zmbd1i1NOWmeVoqNbbm
9M32C69OkQK+B8RYYYH4jA150vFL0h3sVwIDAQABo4GeMIGbMAkGA1UdEwQCMAAw
HQYDVR0OBBYEFDLHLJvxwpGAzobWSG0wxy31UPwIME0GA1UdIwRGMESAFOQnDh3y
2capcwWYainWHi9OViGjoRakFDASMRAwDgYDVQQDDAdyb2JvaHVighQ09WnpNaoI
A/k2tQ7g8SzYxfNp7zATBgNVHSUEDDAKBggrBgEFBQcDAjALBgNVHQ8EBAMCB4Aw
DQYJKoZIhvcNAQELBQADggEBAEG1G8V9n4SYogXx6vtCFVCzISn/AVjsEARu3S8p
DTLzKm/4PnCTC1lLA96Nwdm1kpnCnP0xGdVfVCuVT6IS7V7hiSSQvdEsnjCS3jPQ
cyRQoFf3304h5NS2vEmmWEw9tRdEqPKMM6DUzHLINrTg7wtGPHOm68YGdAV9PrDe
B4pz7+tEM2XtZXweTzjmuv+lXfQLws2mkjVHENsguO52eU2V7vzBXoEb/CYjuwh0
vyO4FDLIXMJ7km0WrwC8wI52pBz35WKWRQ1GW7r0zUDoBvcQkfd+nKRfxe3ZpzIX
/D3cOgEUHU/ijvBar5bxZCgffb9S+CaO0o4aYOqA0u9RCrM=
-----END CERTIFICATE-----
